; Function Attrs: mustprogress uwtable
define noundef nonnull align 8 dereferenceable(64) ptr @_ZNK6icu_7513MessageFormat6formatERKNS_11FormattableERNS_13UnicodeStringERNS_13FieldPositionER10UErrorCode(ptr noundef nonnull align 8 dereferenceable(816) %this, ptr noundef nonnull align 8 dereferenceable(112) %source, ptr noundef nonnull returned align 8 dereferenceable(64) %appendTo, ptr nocapture noundef nonnull readnone align 8 dereferenceable(20) %ignore, ptr noundef nonnull align 4 dereferenceable(4) %success) unnamed_addr #1 align 2 personality ptr @__gxx_personality_v0 {
entry:
  %usapp.i = alloca %"class.icu_75::UnicodeStringAppendable", align 8
  %app.i = alloca %"class.icu_75::AppendableWrapper", align 8
  %0 = load i32, ptr %success, align 4
  %cmp.i = icmp slt i32 %0, 1
  br i1 %cmp.i, label %if.end, label %return

if.end:                                           ; preds = %entry
  %call2 = tail call noundef i32 @_ZNK6icu_7511Formattable7getTypeEv(ptr noundef nonnull align 8 dereferenceable(112) %source)
  %cmp.not = icmp eq i32 %call2, 4
  br i1 %cmp.not, label %if.end4, label %if.then3

if.then3:                                         ; preds = %if.end
  store i32 1, ptr %success, align 4
  br label %return

if.end4:                                          ; preds = %if.end
  %fValue.i = getelementptr inbounds i8, ptr %source, i64 8
  %fCount.i = getelementptr inbounds i8, ptr %source, i64 16
  %1 = load i32, ptr %fCount.i, align 8
  %2 = load ptr, ptr %fValue.i, align 8
  call void @llvm.lifetime.start.p0(i64 16, ptr nonnull %usapp.i)
  call void @llvm.lifetime.start.p0(i64 16, ptr nonnull %app.i)
  %3 = load i32, ptr %success, align 4
  %cmp.i.i = icmp slt i32 %3, 1
  br i1 %cmp.i.i, label %if.end.i, label %_ZNK6icu_7513MessageFormat6formatEPKNS_11FormattableEPKNS_13UnicodeStringEiRS4_PNS_13FieldPositionER10UErrorCode.exit

if.end.i:                                         ; preds = %if.end4
  store ptr getelementptr inbounds ({ [10 x ptr] }, ptr @_ZTVN6icu_7523UnicodeStringAppendableE, i64 0, i32 0, i64 2), ptr %usapp.i, align 8
  %str.i.i = getelementptr inbounds i8, ptr %usapp.i, i64 8
  store ptr %appendTo, ptr %str.i.i, align 8
  store ptr %usapp.i, ptr %app.i, align 8
  %len.i.i = getelementptr inbounds i8, ptr %app.i, i64 8
  store i32 0, ptr %len.i.i, align 8
  invoke void @_ZNK6icu_7513MessageFormat6formatEiPKvPKNS_11FormattableEPKNS_13UnicodeStringEiRNS_17AppendableWrapperEPNS_13FieldPositionER10UErrorCode(ptr noundef nonnull align 8 dereferenceable(816) %this, i32 noundef 0, ptr noundef null, ptr noundef %2, ptr noundef null, i32 noundef %1, ptr noundef nonnull align 8 dereferenceable(12) %app.i, ptr noundef nonnull %ignore, ptr noundef nonnull align 4 dereferenceable(4) %success)
          to label %invoke.cont2.i unwind label %lpad.i

invoke.cont2.i:                                   ; preds = %if.end.i
  call void @_ZN6icu_7523UnicodeStringAppendableD1Ev(ptr noundef nonnull align 8 dereferenceable(16) %usapp.i) #19
  br label %_ZNK6icu_7513MessageFormat6formatEPKNS_11FormattableEPKNS_13UnicodeStringEiRS4_PNS_13FieldPositionER10UErrorCode.exit

lpad.i:                                           ; preds = %if.end.i
  %4 = landingpad { ptr, i32 }
          cleanup
  call void @_ZN6icu_7523UnicodeStringAppendableD1Ev(ptr noundef nonnull align 8 dereferenceable(16) %usapp.i) #19
  resume { ptr, i32 } %4

_ZNK6icu_7513MessageFormat6formatEPKNS_11FormattableEPKNS_13UnicodeStringEiRS4_PNS_13FieldPositionER10UErrorCode.exit: ; preds = %if.end4, %invoke.cont2.i
  call void @llvm.lifetime.end.p0(i64 16, ptr nonnull %usapp.i)
  call void @llvm.lifetime.end.p0(i64 16, ptr nonnull %app.i)
  br label %return

return:                                           ; preds = %entry, %_ZNK6icu_7513MessageFormat6formatEPKNS_11FormattableEPKNS_13UnicodeStringEiRS4_PNS_13FieldPositionER10UErrorCode.exit, %if.then3
  ret ptr %appendTo
}